target datalayout = "e-m:e-p270:32:32-p271:32:32-p272:64:64-i64:64-i128:128-f80:128-n8:16:32:64-S128"
target triple = "x86_64-pc-linux-gnu"

%struct.Sat_Mem_t_ = type { [2 x i32], [2 x i32], [2 x i32], [2 x i32], i32, i32, i32, i32, ptr }
%struct.stats_t = type { i32, i32, i32, i64, i64, i64, i64, i64, i64, i64 }
%struct.veci_t = type { i32, i32, ptr }
%struct.sat_solver2_t = type { i32, i32, i32, i32, i32, double, double, i32, i32, i32, i32, ptr, ptr, i32, i32, i32, i32, i32, i32, i32, i32, i32, i32, i32, %struct.Sat_Mem_t_, ptr, %struct.veci_t, %struct.veci_t, i32, i32, i32, ptr, ptr, ptr, ptr, ptr, ptr, ptr, ptr, %struct.veci_t, %struct.veci_t, %struct.veci_t, %struct.veci_t, %struct.veci_t, %struct.veci_t, %struct.veci_t, %struct.veci_t, %struct.veci_t, %struct.veci_t, ptr, %struct.veci_t, i32, i32, ptr, double, ptr, i32, %struct.stats_t, i64, i64, i64 }

@.str.12 = private unnamed_addr constant [22 x i8] c"starts        : %10d\0A\00", align 1
@.str.13 = private unnamed_addr constant [22 x i8] c"conflicts     : %10d\0A\00", align 1
@.str.14 = private unnamed_addr constant [22 x i8] c"decisions     : %10d\0A\00", align 1
@.str.15 = private unnamed_addr constant [22 x i8] c"propagations  : %10d\0A\00", align 1

; Function Attrs: nounwind uwtable
define void @Sat_Solver2PrintStats(ptr noundef %0, ptr noundef %1) #0 {
  %3 = alloca ptr, align 8
  %4 = alloca ptr, align 8
  store ptr %0, ptr %3, align 8, !tbaa !34
  store ptr %1, ptr %4, align 8, !tbaa !42
  %5 = load ptr, ptr %4, align 8, !tbaa !42
  %6 = getelementptr inbounds nuw %struct.sat_solver2_t, ptr %5, i32 0, i32 57
  %7 = getelementptr inbounds nuw %struct.stats_t, ptr %6, i32 0, i32 0
  %8 = load i32, ptr %7, align 8, !tbaa !62
  %9 = call i32 (ptr, ...) @printf(ptr noundef @.str.12, i32 noundef %8)
  %10 = load ptr, ptr %4, align 8, !tbaa !42
  %11 = getelementptr inbounds nuw %struct.sat_solver2_t, ptr %10, i32 0, i32 57
  %12 = getelementptr inbounds nuw %struct.stats_t, ptr %11, i32 0, i32 6
  %13 = load i64, ptr %12, align 8, !tbaa !63
  %14 = trunc i64 %13 to i32
  %15 = call i32 (ptr, ...) @printf(ptr noundef @.str.13, i32 noundef %14)
  %16 = load ptr, ptr %4, align 8, !tbaa !42
  %17 = getelementptr inbounds nuw %struct.sat_solver2_t, ptr %16, i32 0, i32 57
  %18 = getelementptr inbounds nuw %struct.stats_t, ptr %17, i32 0, i32 3
  %19 = load i64, ptr %18, align 8, !tbaa !64
  %20 = trunc i64 %19 to i32
  %21 = call i32 (ptr, ...) @printf(ptr noundef @.str.14, i32 noundef %20)
  %22 = load ptr, ptr %4, align 8, !tbaa !42
  %23 = getelementptr inbounds nuw %struct.sat_solver2_t, ptr %22, i32 0, i32 57
  %24 = getelementptr inbounds nuw %struct.stats_t, ptr %23, i32 0, i32 4
  %25 = load i64, ptr %24, align 8, !tbaa !65
  %26 = trunc i64 %25 to i32
  %27 = call i32 (ptr, ...) @printf(ptr noundef @.str.15, i32 noundef %26)
  ret void
}