; Function Attrs: nofree nounwind uwtable
define void @Sat_Solver2PrintStats(ptr noundef readnone captures(none) %0, ptr noundef readonly captures(none) %1) local_unnamed_addr #0 {
  %3 = getelementptr inbounds nuw i8, ptr %1, i64 520
  %4 = load i32, ptr %3, align 8, !tbaa !53
  %5 = tail call i32 (ptr, ...) @printf(ptr noundef nonnull dereferenceable(1) @.str.12, i32 noundef %4)
  %6 = getelementptr inbounds nuw i8, ptr %1, i64 560
  %7 = load i64, ptr %6, align 8, !tbaa !54
  %8 = trunc i64 %7 to i32
  %9 = tail call i32 (ptr, ...) @printf(ptr noundef nonnull dereferenceable(1) @.str.13, i32 noundef %8)
  %10 = getelementptr inbounds nuw i8, ptr %1, i64 536
  %11 = load i64, ptr %10, align 8, !tbaa !55
  %12 = trunc i64 %11 to i32
  %13 = tail call i32 (ptr, ...) @printf(ptr noundef nonnull dereferenceable(1) @.str.14, i32 noundef %12)
  %14 = getelementptr inbounds nuw i8, ptr %1, i64 544
  %15 = load i64, ptr %14, align 8, !tbaa !56
  %16 = trunc i64 %15 to i32
  %17 = tail call i32 (ptr, ...) @printf(ptr noundef nonnull dereferenceable(1) @.str.15, i32 noundef %16)
  ret void
}